target datalayout = "e-m:e-p270:32:32-p271:32:32-p272:64:64-i64:64-i128:128-f80:128-n8:16:32:64-S128"
target triple = "x86_64-pc-linux-gnu"

%class.ClassListParser = type { ptr, %class.ResizeableResourceHashtable, %class.FileInput, %class.inputStream, ptr, i32, ptr, ptr, i32, i32, ptr, i8, ptr, i32, ptr }
%class.ResizeableResourceHashtable = type { %class.ResourceHashtableBase.base, i32 }
%class.ResourceHashtableBase.base = type <{ %class.ResizeableResourceHashtableStorage, i32 }>
%class.ResizeableResourceHashtableStorage = type { i32, ptr }
%class.FileInput = type { %"class.inputStream::Input", ptr, %class.fileStream }
%"class.inputStream::Input" = type { ptr }
%class.fileStream = type <{ %class.outputStream, ptr, i8, [7 x i8] }>
%class.outputStream = type { ptr, i32, i8, i32, i64, %class.TimeStamp, ptr, i64 }
%class.TimeStamp = type { i64 }
%class.inputStream = type { ptr, ptr, i32, i8, ptr, i64, i64, i64, i64, i64, i64, [240 x i8] }

@.str.24 = private unnamed_addr constant [3 x i8] c"%i\00", align 1
@.str.25 = private unnamed_addr constant [24 x i8] c"Error: expected integer\00", align 1
@.str.26 = private unnamed_addr constant [42 x i8] c"Error: negative integers not allowed (%d)\00", align 1
@.str.27 = private unnamed_addr constant [19 x i8] c"%s specified twice\00", align 1

; Function Attrs: mustprogress nounwind uwtable
define hidden void @_ZN15ClassListParser20skip_non_whitespacesEv(ptr noundef nonnull align 8 dereferenceable(520) %0) #1 align 2 {
  %2 = alloca ptr, align 8
  store ptr %0, ptr %2, align 8
  %3 = load ptr, ptr %2, align 8
  br label %4

4:                                                ; preds = %23, %1
  %5 = getelementptr inbounds %class.ClassListParser, ptr %3, i32 0, i32 14
  %6 = load ptr, ptr %5, align 8
  %7 = load i8, ptr %6, align 1
  %8 = icmp ne i8 %7, 0
  br i1 %8, label %9, label %21

9:                                                ; preds = %4
  %10 = getelementptr inbounds %class.ClassListParser, ptr %3, i32 0, i32 14
  %11 = load ptr, ptr %10, align 8
  %12 = load i8, ptr %11, align 1
  %13 = sext i8 %12 to i32
  %14 = icmp ne i32 %13, 32
  br i1 %14, label %15, label %21

15:                                               ; preds = %9
  %16 = getelementptr inbounds %class.ClassListParser, ptr %3, i32 0, i32 14
  %17 = load ptr, ptr %16, align 8
  %18 = load i8, ptr %17, align 1
  %19 = sext i8 %18 to i32
  %20 = icmp ne i32 %19, 9
  br label %21

21:                                               ; preds = %15, %9, %4
  %22 = phi i1 [ false, %9 ], [ false, %4 ], [ %20, %15 ]
  br i1 %22, label %23, label %27

23:                                               ; preds = %21
  %24 = getelementptr inbounds %class.ClassListParser, ptr %3, i32 0, i32 14
  %25 = load ptr, ptr %24, align 8
  %26 = getelementptr inbounds i8, ptr %25, i32 1
  store ptr %26, ptr %24, align 8
  br label %4, !llvm.loop !18

27:                                               ; preds = %21
  ret void
}

; Function Attrs: mustprogress nounwind uwtable
define hidden void @_ZN15ClassListParser16skip_whitespacesEv(ptr noundef nonnull align 8 dereferenceable(520) %0) #1 align 2 {
  %2 = alloca ptr, align 8
  store ptr %0, ptr %2, align 8
  %3 = load ptr, ptr %2, align 8
  br label %4

4:                                                ; preds = %18, %1
  %5 = getelementptr inbounds %class.ClassListParser, ptr %3, i32 0, i32 14
  %6 = load ptr, ptr %5, align 8
  %7 = load i8, ptr %6, align 1
  %8 = sext i8 %7 to i32
  %9 = icmp eq i32 %8, 32
  br i1 %9, label %16, label %10

10:                                               ; preds = %4
  %11 = getelementptr inbounds %class.ClassListParser, ptr %3, i32 0, i32 14
  %12 = load ptr, ptr %11, align 8
  %13 = load i8, ptr %12, align 1
  %14 = sext i8 %13 to i32
  %15 = icmp eq i32 %14, 9
  br label %16

16:                                               ; preds = %10, %4
  %17 = phi i1 [ true, %4 ], [ %15, %10 ]
  br i1 %17, label %18, label %22

18:                                               ; preds = %16
  %19 = getelementptr inbounds %class.ClassListParser, ptr %3, i32 0, i32 14
  %20 = load ptr, ptr %19, align 8
  %21 = getelementptr inbounds i8, ptr %20, i32 1
  store ptr %21, ptr %19, align 8
  br label %4, !llvm.loop !12

22:                                               ; preds = %16
  ret void
}

; Function Attrs: mustprogress nounwind uwtable
define hidden void @_ZN15ClassListParser9parse_intEPi(ptr noundef nonnull align 8 dereferenceable(520) %0, ptr noundef %1) #1 align 2 {
  %3 = alloca ptr, align 8
  %4 = alloca ptr, align 8
  store ptr %0, ptr %3, align 8
  store ptr %1, ptr %4, align 8
  %5 = load ptr, ptr %3, align 8
  call void @_ZN15ClassListParser16skip_whitespacesEv(ptr noundef nonnull align 8 dereferenceable(520) %5)
  %6 = getelementptr inbounds %class.ClassListParser, ptr %5, i32 0, i32 14
  %7 = load ptr, ptr %6, align 8
  %8 = load ptr, ptr %4, align 8
  %9 = call i32 (ptr, ptr, ...) @__isoc99_sscanf(ptr noundef %7, ptr noundef @.str.24, ptr noundef %8) #11
  %10 = icmp eq i32 %9, 1
  br i1 %10, label %11, label %12

11:                                               ; preds = %2
  call void @_ZN15ClassListParser20skip_non_whitespacesEv(ptr noundef nonnull align 8 dereferenceable(520) %5)
  br label %13

12:                                               ; preds = %2
  call void (ptr, ptr, ...) @_ZN15ClassListParser5errorEPKcz(ptr noundef nonnull align 8 dereferenceable(520) %5, ptr noundef @.str.25)
  br label %13

13:                                               ; preds = %12, %11
  ret void
}

; Function Attrs: mustprogress nounwind uwtable
define hidden void @_ZN15ClassListParser10parse_uintEPi(ptr noundef nonnull align 8 dereferenceable(520) %0, ptr noundef %1) #1 align 2 {
  %3 = alloca ptr, align 8
  %4 = alloca ptr, align 8
  store ptr %0, ptr %3, align 8
  store ptr %1, ptr %4, align 8
  %5 = load ptr, ptr %3, align 8
  %6 = load ptr, ptr %4, align 8
  call void @_ZN15ClassListParser9parse_intEPi(ptr noundef nonnull align 8 dereferenceable(520) %5, ptr noundef %6)
  %7 = load ptr, ptr %4, align 8
  %8 = load i32, ptr %7, align 4
  %9 = icmp slt i32 %8, 0
  br i1 %9, label %10, label %13

10:                                               ; preds = %2
  %11 = load ptr, ptr %4, align 8
  %12 = load i32, ptr %11, align 4
  call void (ptr, ptr, ...) @_ZN15ClassListParser5errorEPKcz(ptr noundef nonnull align 8 dereferenceable(520) %5, ptr noundef @.str.26, i32 noundef %12)
  br label %13

13:                                               ; preds = %10, %2
  ret void
}

; Function Attrs: mustprogress nounwind uwtable
define hidden noundef zeroext i1 @_ZN15ClassListParser10skip_tokenEPKc(ptr noundef nonnull align 8 dereferenceable(520) %0, ptr noundef %1) #1 align 2 {
  %3 = alloca i1, align 1
  %4 = alloca ptr, align 8
  %5 = alloca ptr, align 8
  %6 = alloca i64, align 8
  store ptr %0, ptr %4, align 8
  store ptr %1, ptr %5, align 8
  %7 = load ptr, ptr %4, align 8
  %8 = load ptr, ptr %5, align 8
  %9 = call i64 @strlen(ptr noundef %8) #12
  store i64 %9, ptr %6, align 8
  %10 = getelementptr inbounds %class.ClassListParser, ptr %7, i32 0, i32 14
  %11 = load ptr, ptr %10, align 8
  %12 = load ptr, ptr %5, align 8
  %13 = load i64, ptr %6, align 8
  %14 = call i32 @strncmp(ptr noundef %11, ptr noundef %12, i64 noundef %13) #12
  %15 = icmp eq i32 %14, 0
  br i1 %15, label %16, label %21

16:                                               ; preds = %2
  %17 = load i64, ptr %6, align 8
  %18 = getelementptr inbounds %class.ClassListParser, ptr %7, i32 0, i32 14
  %19 = load ptr, ptr %18, align 8
  %20 = getelementptr inbounds i8, ptr %19, i64 %17
  store ptr %20, ptr %18, align 8
  store i1 true, ptr %3, align 1
  br label %22

21:                                               ; preds = %2
  store i1 false, ptr %3, align 1
  br label %22

22:                                               ; preds = %21, %16
  %23 = load i1, ptr %3, align 1
  ret i1 %23
}

; Function Attrs: mustprogress nounwind uwtable
define hidden noundef zeroext i1 @_ZN15ClassListParser17parse_uint_optionEPKcPi(ptr noundef nonnull align 8 dereferenceable(520) %0, ptr noundef %1, ptr noundef %2) #1 align 2 {
  %4 = alloca i1, align 1
  %5 = alloca ptr, align 8
  %6 = alloca ptr, align 8
  %7 = alloca ptr, align 8
  store ptr %0, ptr %5, align 8
  store ptr %1, ptr %6, align 8
  store ptr %2, ptr %7, align 8
  %8 = load ptr, ptr %5, align 8
  %9 = load ptr, ptr %6, align 8
  %10 = call noundef zeroext i1 @_ZN15ClassListParser10skip_tokenEPKc(ptr noundef nonnull align 8 dereferenceable(520) %8, ptr noundef %9)
  br i1 %10, label %11, label %20

11:                                               ; preds = %3
  %12 = load ptr, ptr %7, align 8
  %13 = load i32, ptr %12, align 4
  %14 = icmp ne i32 %13, -999
  br i1 %14, label %15, label %17

15:                                               ; preds = %11
  %16 = load ptr, ptr %6, align 8
  call void (ptr, ptr, ...) @_ZN15ClassListParser5errorEPKcz(ptr noundef nonnull align 8 dereferenceable(520) %8, ptr noundef @.str.27, ptr noundef %16)
  br label %19

17:                                               ; preds = %11
  %18 = load ptr, ptr %7, align 8
  call void @_ZN15ClassListParser10parse_uintEPi(ptr noundef nonnull align 8 dereferenceable(520) %8, ptr noundef %18)
  store i1 true, ptr %4, align 1
  br label %21

19:                                               ; preds = %15
  br label %20

20:                                               ; preds = %19, %3
  store i1 false, ptr %4, align 1
  br label %21

21:                                               ; preds = %20, %17
  %22 = load i1, ptr %4, align 1
  ret i1 %22
}