; Function Attrs: mustprogress nounwind uwtable
define hidden noundef zeroext i1 @_ZN15ClassListParser17parse_uint_optionEPKcPi(ptr noundef nonnull align 8 dereferenceable(520) %0, ptr noundef %1, ptr noundef %2) local_unnamed_addr #0 align 2 {
  %4 = tail call i64 @strlen(ptr noundef nonnull readonly dereferenceable(1) %1) #20
  %5 = getelementptr inbounds i8, ptr %0, i64 512
  %6 = load ptr, ptr %5, align 8
  %7 = tail call i32 @strncmp(ptr noundef %6, ptr noundef readonly %1, i64 noundef %4) #20
  %8 = icmp eq i32 %7, 0
  br i1 %8, label %9, label %_ZN15ClassListParser10skip_tokenEPKc.exit

9:                                                ; preds = %3
  %10 = getelementptr inbounds i8, ptr %6, i64 %4
  store ptr %10, ptr %5, align 8
  %11 = load i32, ptr %2, align 4
  %.not = icmp eq i32 %11, -999
  br i1 %.not, label %.preheader, label %12

12:                                               ; preds = %9
  tail call void (ptr, ptr, ...) @_ZN15ClassListParser5errorEPKcz(ptr noundef nonnull align 8 dereferenceable(520) %0, ptr noundef nonnull @.str.27, ptr noundef %1)
  br label %_ZN15ClassListParser10skip_tokenEPKc.exit

.preheader:                                       ; preds = %9, %.critedge.i.i.i
  %13 = phi ptr [ %15, %.critedge.i.i.i ], [ %10, %9 ]
  %14 = load i8, ptr %13, align 1
  switch i8 %14, label %_ZN15ClassListParser16skip_whitespacesEv.exit.i.i [
    i8 32, label %.critedge.i.i.i
    i8 9, label %.critedge.i.i.i
  ]

.critedge.i.i.i:                                  ; preds = %.preheader, %.preheader
  %15 = getelementptr inbounds i8, ptr %13, i64 1
  store ptr %15, ptr %5, align 8
  br label %.preheader, !llvm.loop !20

_ZN15ClassListParser16skip_whitespacesEv.exit.i.i: ; preds = %.preheader
  %16 = tail call i32 (ptr, ptr, ...) @__isoc99_sscanf(ptr noundef nonnull %13, ptr noundef nonnull @.str.24, ptr noundef nonnull %2) #19
  %17 = icmp eq i32 %16, 1
  br i1 %17, label %18, label %24

18:                                               ; preds = %_ZN15ClassListParser16skip_whitespacesEv.exit.i.i
  %.promoted.i2.i.i = load ptr, ptr %5, align 8
  br label %19

19:                                               ; preds = %22, %18
  %20 = phi ptr [ %23, %22 ], [ %.promoted.i2.i.i, %18 ]
  %21 = load i8, ptr %20, align 1
  switch i8 %21, label %22 [
    i8 0, label %_ZN15ClassListParser9parse_intEPi.exit.i
    i8 32, label %_ZN15ClassListParser9parse_intEPi.exit.i
    i8 9, label %_ZN15ClassListParser9parse_intEPi.exit.i
  ]

22:                                               ; preds = %19
  %23 = getelementptr inbounds i8, ptr %20, i64 1
  store ptr %23, ptr %5, align 8
  br label %19, !llvm.loop !19

24:                                               ; preds = %_ZN15ClassListParser16skip_whitespacesEv.exit.i.i
  tail call void (ptr, ptr, ...) @_ZN15ClassListParser5errorEPKcz(ptr noundef nonnull align 8 dereferenceable(520) %0, ptr noundef nonnull @.str.25)
  br label %_ZN15ClassListParser9parse_intEPi.exit.i

_ZN15ClassListParser9parse_intEPi.exit.i:         ; preds = %19, %19, %19, %24
  %25 = load i32, ptr %2, align 4
  %26 = icmp slt i32 %25, 0
  br i1 %26, label %27, label %_ZN15ClassListParser10skip_tokenEPKc.exit

27:                                               ; preds = %_ZN15ClassListParser9parse_intEPi.exit.i
  tail call void (ptr, ptr, ...) @_ZN15ClassListParser5errorEPKcz(ptr noundef nonnull align 8 dereferenceable(520) %0, ptr noundef nonnull @.str.26, i32 noundef %25)
  br label %_ZN15ClassListParser10skip_tokenEPKc.exit

_ZN15ClassListParser10skip_tokenEPKc.exit:        ; preds = %27, %_ZN15ClassListParser9parse_intEPi.exit.i, %3, %12
  %.0 = phi i1 [ false, %12 ], [ false, %3 ], [ true, %_ZN15ClassListParser9parse_intEPi.exit.i ], [ true, %27 ]
  ret i1 %.0
}